target datalayout = "e-m:e-p270:32:32-p271:32:32-p272:64:64-i64:64-i128:128-f80:128-n8:16:32:64-S128"
target triple = "x86_64-pc-linux-gnu"

%struct.rb_ractor_struct = type { %struct.rb_ractor_pub, %struct.rb_ractor_sync, i64, %union.pthread_cond_t, %struct.anon.17, i64, i64, i64, i32, %struct.ccan_list_node, ptr, ptr, i64, i64, i64, i64, i64, i64, ptr }
%struct.rb_ractor_pub = type { i64, i32, %struct.rb_hook_list_struct }
%struct.rb_hook_list_struct = type { ptr, i32, i32, i8, i8 }
%struct.rb_ractor_sync = type { %union.pthread_mutex_t, i8, i8, %struct.rb_ractor_queue, %struct.rb_ractor_queue, %struct.rb_ractor_basket, %struct.ractor_wait }
%union.pthread_mutex_t = type { %struct.__pthread_mutex_s }
%struct.__pthread_mutex_s = type { i32, i32, i32, i32, i32, i16, i16, %struct.__pthread_internal_list }
%struct.__pthread_internal_list = type { ptr, ptr }
%struct.rb_ractor_queue = type { ptr, i32, i32, i32, i32, i32 }
%struct.rb_ractor_basket = type { %union.anon.13, i64, %union.anon.14 }
%union.anon.13 = type { i32 }
%union.anon.14 = type { %struct.anon.15 }
%struct.anon.15 = type { i64, i8 }
%struct.ractor_wait = type { i32, i32, ptr }
%union.pthread_cond_t = type { %struct.__pthread_cond_s }
%struct.__pthread_cond_s = type { %union.__atomic_wide_counter, %union.__atomic_wide_counter, [2 x i32], [2 x i32], i32, i32, [2 x i32] }
%union.__atomic_wide_counter = type { i64 }
%struct.anon.17 = type { %struct.ccan_list_head, i32, i32, i32, %struct.rb_thread_sched, ptr, ptr }
%struct.ccan_list_head = type { %struct.ccan_list_node }
%struct.rb_thread_sched = type { %union.pthread_mutex_t, ptr, i8, i8, i8, %struct.ccan_list_head, i32, %struct.ccan_list_node }
%struct.ccan_list_node = type { ptr, ptr }
%struct.rb_vm_struct = type { i64, %struct.anon, ptr, i64, %struct.ccan_list_head, i32, i8, i64, ptr, [5 x i64], i64, i64, i64, i64, i64, i64, i64, i64, i64, ptr, ptr, ptr, %struct.anon.3, ptr, i32, %struct.ccan_list_head, %union.pthread_mutex_t, i64, i64, i64, i64, i32, %struct.anon.4, ptr, ptr, ptr, ptr, ptr, ptr, ptr, ptr, i64, [1023 x ptr], %struct.anon.5 }
%struct.anon = type { %struct.ccan_list_head, i32, i32, ptr, ptr, %struct.anon.0, %struct.anon.2 }
%struct.anon.0 = type { %union.pthread_mutex_t, ptr, i32, %union.pthread_cond_t, i8 }
%struct.anon.2 = type { %union.pthread_mutex_t, ptr, i8, %union.pthread_cond_t, i32, i32, i32, i32, %struct.ccan_list_head, i32, %struct.ccan_list_head, %struct.ccan_list_head, %struct.ccan_list_head, i8, %union.pthread_cond_t, %union.pthread_cond_t, i8, i32, i32 }
%struct.anon.3 = type { [65 x i64] }
%struct.anon.4 = type { ptr, ptr }
%struct.anon.5 = type { i64, i64, i64, i64 }

@.str = private unnamed_addr constant [12 x i8] c"../ractor.c\00", align 1
@ruby_single_main_ractor = external global ptr, align 8
@.str.64 = private unnamed_addr constant [12 x i8] c"unreachable\00", align 1
@ruby_current_vm_ptr = external global ptr, align 8

; Function Attrs: nounwind sspstrong uwtable
define internal void @ractor_status_set(ptr noundef %0, i32 noundef %1) #0 {
  %3 = alloca ptr, align 8
  %4 = alloca i32, align 4
  store ptr %0, ptr %3, align 8, !tbaa !7
  store i32 %1, ptr %4, align 4, !tbaa !14
  %5 = load ptr, ptr %3, align 8, !tbaa !7
  %6 = getelementptr inbounds nuw %struct.rb_ractor_struct, ptr %5, i32 0, i32 8
  %7 = load i32, ptr %6, align 8, !tbaa !77
  %8 = icmp ne i32 %7, 0
  br i1 %8, label %9, label %10

9:                                                ; preds = %2
  br label %10

10:                                               ; preds = %9, %2
  %11 = load ptr, ptr %3, align 8, !tbaa !7
  %12 = getelementptr inbounds nuw %struct.rb_ractor_struct, ptr %11, i32 0, i32 8
  %13 = load i32, ptr %12, align 8, !tbaa !77
  switch i32 %13, label %18 [
    i32 0, label %14
    i32 1, label %15
    i32 2, label %16
    i32 3, label %17
  ]

14:                                               ; preds = %10
  br label %18

15:                                               ; preds = %10
  br label %18

16:                                               ; preds = %10
  br label %18

17:                                               ; preds = %10
  call void (ptr, ...) @rb_bug(ptr noundef @.str.64) #31
  unreachable

18:                                               ; preds = %10, %16, %15, %14
  %19 = load i32, ptr %4, align 4, !tbaa !14
  %20 = load ptr, ptr %3, align 8, !tbaa !7
  %21 = getelementptr inbounds nuw %struct.rb_ractor_struct, ptr %20, i32 0, i32 8
  store i32 %19, ptr %21, align 8, !tbaa !77
  ret void
}

; Function Attrs: inlinehint nounwind sspstrong uwtable
define internal zeroext i1 @rb_multi_ractor_p() #4 {
  %1 = alloca i1, align 1
  %2 = load ptr, ptr @ruby_single_main_ractor, align 8, !tbaa !7
  %3 = icmp ne ptr %2, null
  %4 = xor i1 %3, true
  %5 = xor i1 %4, true
  %6 = zext i1 %5 to i32
  %7 = sext i32 %6 to i64
  %8 = call i64 @llvm.expect.i64(i64 %7, i64 1)
  %9 = icmp ne i64 %8, 0
  br i1 %9, label %10, label %11

10:                                               ; preds = %0
  store i1 false, ptr %1, align 1
  br label %12

11:                                               ; preds = %0
  store i1 true, ptr %1, align 1
  br label %12

12:                                               ; preds = %11, %10
  %13 = load i1, ptr %1, align 1
  ret i1 %13
}

; Function Attrs: inlinehint nounwind sspstrong uwtable
define internal void @rb_vm_lock_leave(ptr noundef %0, ptr noundef %1, i32 noundef %2) #4 {
  %4 = alloca ptr, align 8
  %5 = alloca ptr, align 8
  %6 = alloca i32, align 4
  store ptr %0, ptr %4, align 8, !tbaa !110
  store ptr %1, ptr %5, align 8, !tbaa !12
  store i32 %2, ptr %6, align 4, !tbaa !14
  %7 = call zeroext i1 @rb_multi_ractor_p()
  br i1 %7, label %8, label %10

8:                                                ; preds = %3
  %9 = load ptr, ptr %4, align 8, !tbaa !110
  call void @rb_vm_lock_leave_body(ptr noundef %9)
  br label %10

10:                                               ; preds = %8, %3
  ret void
}

; Function Attrs: nounwind sspstrong uwtable
define hidden void @rb_vm_ractor_blocking_cnt_dec(ptr noundef %0, ptr noundef %1, ptr noundef %2, i32 noundef %3) #0 {
  %5 = alloca ptr, align 8
  %6 = alloca ptr, align 8
  %7 = alloca ptr, align 8
  %8 = alloca i32, align 4
  store ptr %0, ptr %5, align 8, !tbaa !44
  store ptr %1, ptr %6, align 8, !tbaa !7
  store ptr %2, ptr %7, align 8, !tbaa !12
  store i32 %3, ptr %8, align 4, !tbaa !14
  %9 = load ptr, ptr %5, align 8, !tbaa !44
  %10 = getelementptr inbounds nuw %struct.rb_vm_struct, ptr %9, i32 0, i32 1
  %11 = getelementptr inbounds nuw %struct.anon, ptr %10, i32 0, i32 2
  %12 = load i32, ptr %11, align 4, !tbaa !62
  %13 = add i32 %12, -1
  store i32 %13, ptr %11, align 4, !tbaa !62
  %14 = load ptr, ptr %6, align 8, !tbaa !7
  call void @ractor_status_set(ptr noundef %14, i32 noundef 1)
  ret void
}

; Function Attrs: inlinehint nounwind sspstrong uwtable
define internal void @rb_vm_lock_enter(ptr noundef %0, ptr noundef %1, i32 noundef %2) #4 {
  %4 = alloca ptr, align 8
  %5 = alloca ptr, align 8
  %6 = alloca i32, align 4
  store ptr %0, ptr %4, align 8, !tbaa !110
  store ptr %1, ptr %5, align 8, !tbaa !12
  store i32 %2, ptr %6, align 4, !tbaa !14
  %7 = call zeroext i1 @rb_multi_ractor_p()
  br i1 %7, label %8, label %10

8:                                                ; preds = %3
  %9 = load ptr, ptr %4, align 8, !tbaa !110
  call void @rb_vm_lock_enter_body(ptr noundef %9)
  br label %10

10:                                               ; preds = %8, %3
  ret void
}

; Function Attrs: inlinehint nounwind sspstrong uwtable
define internal ptr @rb_current_vm() #4 {
  %1 = load ptr, ptr @ruby_current_vm_ptr, align 8, !tbaa !44
  ret ptr %1
}

; Function Attrs: nounwind sspstrong uwtable
define hidden void @rb_ractor_blocking_threads_dec(ptr noundef %0, ptr noundef %1, i32 noundef %2) #0 {
  %4 = alloca ptr, align 8
  %5 = alloca ptr, align 8
  %6 = alloca i32, align 4
  %7 = alloca ptr, align 8
  %8 = alloca i32, align 4
  store ptr %0, ptr %4, align 8, !tbaa !7
  store ptr %1, ptr %5, align 8, !tbaa !12
  store i32 %2, ptr %6, align 4, !tbaa !14
  %9 = load ptr, ptr %4, align 8, !tbaa !7
  %10 = getelementptr inbounds nuw %struct.rb_ractor_struct, ptr %9, i32 0, i32 4
  %11 = getelementptr inbounds nuw %struct.anon.17, ptr %10, i32 0, i32 1
  %12 = load i32, ptr %11, align 8, !tbaa !78
  %13 = load ptr, ptr %4, align 8, !tbaa !7
  %14 = getelementptr inbounds nuw %struct.rb_ractor_struct, ptr %13, i32 0, i32 4
  %15 = getelementptr inbounds nuw %struct.anon.17, ptr %14, i32 0, i32 2
  %16 = load i32, ptr %15, align 4, !tbaa !79
  %17 = icmp eq i32 %12, %16
  br i1 %17, label %18, label %22

18:                                               ; preds = %3
  call void @llvm.lifetime.start.p0(i64 8, ptr %7) #16
  %19 = call ptr @rb_current_vm()
  store ptr %19, ptr %7, align 8, !tbaa !44
  call void @llvm.lifetime.start.p0(i64 4, ptr %8) #16
  call void @rb_vm_lock_enter(ptr noundef %8, ptr noundef @.str, i32 noundef 2429)
  %20 = load ptr, ptr %7, align 8, !tbaa !44
  %21 = load ptr, ptr %4, align 8, !tbaa !7
  call void @rb_vm_ractor_blocking_cnt_dec(ptr noundef %20, ptr noundef %21, ptr noundef @.str, i32 noundef 2431)
  call void @rb_vm_lock_leave(ptr noundef %8, ptr noundef @.str, i32 noundef 2433)
  call void @llvm.lifetime.end.p0(i64 4, ptr %8) #16
  call void @llvm.lifetime.end.p0(i64 8, ptr %7) #16
  br label %22

22:                                               ; preds = %18, %3
  %23 = load ptr, ptr %4, align 8, !tbaa !7
  %24 = getelementptr inbounds nuw %struct.rb_ractor_struct, ptr %23, i32 0, i32 4
  %25 = getelementptr inbounds nuw %struct.anon.17, ptr %24, i32 0, i32 2
  %26 = load i32, ptr %25, align 4, !tbaa !79
  %27 = add i32 %26, -1
  store i32 %27, ptr %25, align 4, !tbaa !79
  ret void
}