; Function Attrs: nounwind sspstrong uwtable
define hidden void @rb_ractor_blocking_threads_dec(ptr noundef captures(none) %0, ptr noundef readnone captures(none) %1, i32 noundef %2) local_unnamed_addr #0 {
  %4 = alloca i32, align 4
  %5 = getelementptr inbounds nuw i8, ptr %0, i64 272
  %6 = load i32, ptr %5, align 8, !tbaa !75
  %7 = getelementptr inbounds nuw i8, ptr %0, i64 276
  %8 = load i32, ptr %7, align 4, !tbaa !76
  %9 = icmp eq i32 %6, %8
  br i1 %9, label %10, label %22

10:                                               ; preds = %3
  %11 = load ptr, ptr @ruby_current_vm_ptr, align 8, !tbaa !125
  call void @llvm.lifetime.start.p0(i64 4, ptr nonnull %4) #19
  %12 = load ptr, ptr @ruby_single_main_ractor, align 8, !tbaa !39
  %.not.i.i = icmp eq ptr %12, null
  br i1 %.not.i.i, label %13, label %rb_vm_lock_enter.exit

13:                                               ; preds = %10
  call void @rb_vm_lock_enter_body(ptr noundef nonnull %4) #19
  br label %rb_vm_lock_enter.exit

rb_vm_lock_enter.exit:                            ; preds = %10, %13
  %14 = getelementptr inbounds nuw i8, ptr %11, i64 28
  %15 = load i32, ptr %14, align 4, !tbaa !56
  %16 = add i32 %15, -1
  store i32 %16, ptr %14, align 4, !tbaa !56
  %17 = getelementptr inbounds nuw i8, ptr %0, i64 424
  %18 = load i32, ptr %17, align 8, !tbaa !72
  %cond.i.i = icmp eq i32 %18, 3
  br i1 %cond.i.i, label %19, label %rb_vm_ractor_blocking_cnt_dec.exit

19:                                               ; preds = %rb_vm_lock_enter.exit
  call void (ptr, ...) @rb_bug(ptr noundef nonnull @.str.64) #33
  unreachable

rb_vm_ractor_blocking_cnt_dec.exit:               ; preds = %rb_vm_lock_enter.exit
  store i32 1, ptr %17, align 8, !tbaa !72
  %20 = load ptr, ptr @ruby_single_main_ractor, align 8, !tbaa !39
  %.not.i.i5 = icmp eq ptr %20, null
  br i1 %.not.i.i5, label %21, label %rb_vm_lock_leave.exit

21:                                               ; preds = %rb_vm_ractor_blocking_cnt_dec.exit
  call void @rb_vm_lock_leave_body(ptr noundef nonnull %4) #19
  br label %rb_vm_lock_leave.exit

rb_vm_lock_leave.exit:                            ; preds = %rb_vm_ractor_blocking_cnt_dec.exit, %21
  call void @llvm.lifetime.end.p0(i64 4, ptr nonnull %4) #19
  %.pre = load i32, ptr %7, align 4, !tbaa !76
  br label %22

22:                                               ; preds = %rb_vm_lock_leave.exit, %3
  %23 = phi i32 [ %.pre, %rb_vm_lock_leave.exit ], [ %8, %3 ]
  %24 = add i32 %23, -1
  store i32 %24, ptr %7, align 4, !tbaa !76
  ret void
}